target datalayout = "e-m:e-p270:32:32-p271:32:32-p272:64:64-i64:64-i128:128-f80:128-n8:16:32:64-S128"
target triple = "x86_64-pc-linux-gnu"

%struct.pkcs12_attr = type { ptr, ptr }
%struct.pkcs12_builder = type { ptr, i32, ptr, ptr, i32, ptr, i32 }

@.str.20 = private unnamed_addr constant [37 x i8] c"../openssl/test/pkcs12_format_test.c\00", align 1
@ATTRS3 = internal constant [4 x %struct.pkcs12_attr] [%struct.pkcs12_attr { ptr @.str.56, ptr @.str.90 }, %struct.pkcs12_attr { ptr @.str.58, ptr @.str.91 }, %struct.pkcs12_attr { ptr @.str.92, ptr @.str.93 }, %struct.pkcs12_attr zeroinitializer], align 16
@.str.93 = private unnamed_addr constant [20 x i8] c"anyExtendedKeyUsage\00", align 1
@.str.94 = private unnamed_addr constant [10 x i8] c"attrs.p12\00", align 1
@ATTRS4 = internal constant [3 x %struct.pkcs12_attr] [%struct.pkcs12_attr { ptr @.str.56, ptr @.str.90 }, %struct.pkcs12_attr { ptr @.str.58, ptr @.str.91 }, %struct.pkcs12_attr zeroinitializer], align 16
@.str.95 = private unnamed_addr constant [6 x i8] c"attrs\00", align 1

; Function Attrs: inlinehint nounwind uwtable
define internal ptr @ossl_check_const_PKCS12_SAFEBAG_sk_type(ptr noundef %0) #3 {
  %2 = alloca ptr, align 8
  store ptr %0, ptr %2, align 8, !tbaa !43
  %3 = load ptr, ptr %2, align 8, !tbaa !43
  ret ptr %3
}

; Function Attrs: nounwind uwtable
define internal i32 @test_set0_attrs() #0 {
  %1 = alloca i32, align 4
  %2 = alloca ptr, align 8
  %3 = alloca ptr, align 8
  %4 = alloca ptr, align 8
  %5 = alloca ptr, align 8
  %6 = alloca i32, align 4
  call void @llvm.lifetime.start.p0(i64 8, ptr %2) #4
  %7 = call ptr @new_pkcs12_builder(ptr noundef @.str.94)
  store ptr %7, ptr %2, align 8, !tbaa !15
  call void @llvm.lifetime.start.p0(i64 8, ptr %3) #4
  store ptr null, ptr %3, align 8, !tbaa !31
  call void @llvm.lifetime.start.p0(i64 8, ptr %4) #4
  store ptr null, ptr %4, align 8, !tbaa !33
  call void @llvm.lifetime.start.p0(i64 8, ptr %5) #4
  store ptr null, ptr %5, align 8, !tbaa !35
  %8 = load ptr, ptr %2, align 8, !tbaa !15
  call void @start_pkcs12(ptr noundef %8)
  %9 = load ptr, ptr %2, align 8, !tbaa !15
  call void @start_contentinfo(ptr noundef %9)
  %10 = load ptr, ptr %2, align 8, !tbaa !15
  call void @add_certbag(ptr noundef %10, ptr noundef @CERT1, i32 noundef 497, ptr noundef @ATTRS4)
  %11 = load ptr, ptr %2, align 8, !tbaa !15
  %12 = getelementptr inbounds nuw %struct.pkcs12_builder, ptr %11, i32 0, i32 5
  %13 = load ptr, ptr %12, align 8, !tbaa !37
  %14 = call ptr @ossl_check_const_PKCS12_SAFEBAG_sk_type(ptr noundef %13)
  %15 = call ptr @OPENSSL_sk_value(ptr noundef %14, i32 noundef 0)
  store ptr %15, ptr %3, align 8, !tbaa !31
  %16 = load ptr, ptr %3, align 8, !tbaa !31
  %17 = call ptr @PKCS12_SAFEBAG_get0_attrs(ptr noundef %16)
  store ptr %17, ptr %4, align 8, !tbaa !33
  %18 = call ptr @OBJ_txt2obj(ptr noundef @.str.93, i32 noundef 0)
  %19 = call ptr @X509_ATTRIBUTE_create(i32 noundef 1283, i32 noundef 6, ptr noundef %18)
  store ptr %19, ptr %5, align 8, !tbaa !35
  %20 = load ptr, ptr %5, align 8, !tbaa !35
  %21 = call ptr @X509at_add1_attr(ptr noundef %4, ptr noundef %20)
  %22 = load ptr, ptr %3, align 8, !tbaa !31
  %23 = load ptr, ptr %4, align 8, !tbaa !33
  call void @PKCS12_SAFEBAG_set0_attrs(ptr noundef %22, ptr noundef %23)
  %24 = load ptr, ptr %3, align 8, !tbaa !31
  %25 = call ptr @PKCS12_SAFEBAG_get0_attrs(ptr noundef %24)
  store ptr %25, ptr %4, align 8, !tbaa !33
  %26 = load ptr, ptr %5, align 8, !tbaa !35
  call void @X509_ATTRIBUTE_free(ptr noundef %26)
  %27 = load ptr, ptr %4, align 8, !tbaa !33
  %28 = call i32 @test_ptr(ptr noundef @.str.20, i32 noundef 773, ptr noundef @.str.95, ptr noundef %27)
  %29 = icmp ne i32 %28, 0
  br i1 %29, label %31, label %30

30:                                               ; preds = %0
  br label %41

31:                                               ; preds = %0
  %32 = load ptr, ptr %2, align 8, !tbaa !15
  call void @end_contentinfo(ptr noundef %32)
  %33 = load ptr, ptr %2, align 8, !tbaa !15
  call void @end_pkcs12(ptr noundef %33)
  %34 = load ptr, ptr %2, align 8, !tbaa !15
  call void @start_check_pkcs12(ptr noundef %34)
  %35 = load ptr, ptr %2, align 8, !tbaa !15
  call void @start_check_contentinfo(ptr noundef %35)
  %36 = load ptr, ptr %2, align 8, !tbaa !15
  call void @check_certbag(ptr noundef %36, ptr noundef @CERT1, i32 noundef 497, ptr noundef @ATTRS3)
  %37 = load ptr, ptr %2, align 8, !tbaa !15
  call void @end_check_contentinfo(ptr noundef %37)
  %38 = load ptr, ptr %2, align 8, !tbaa !15
  call void @end_check_pkcs12(ptr noundef %38)
  %39 = load ptr, ptr %2, align 8, !tbaa !15
  %40 = call i32 @end_pkcs12_builder(ptr noundef %39)
  store i32 %40, ptr %1, align 4
  store i32 1, ptr %6, align 4
  br label %44

41:                                               ; preds = %30
  %42 = load ptr, ptr %2, align 8, !tbaa !15
  %43 = call i32 @end_pkcs12_builder(ptr noundef %42)
  store i32 0, ptr %1, align 4
  store i32 1, ptr %6, align 4
  br label %44

44:                                               ; preds = %41, %31
  call void @llvm.lifetime.end.p0(i64 8, ptr %5) #4
  call void @llvm.lifetime.end.p0(i64 8, ptr %4) #4
  call void @llvm.lifetime.end.p0(i64 8, ptr %3) #4
  call void @llvm.lifetime.end.p0(i64 8, ptr %2) #4
  %45 = load i32, ptr %1, align 4
  ret i32 %45
}