; Function Attrs: nounwind uwtable
define internal i32 @test_set0_attrs() #1 {
  %1 = alloca ptr, align 8
  %2 = tail call ptr @new_pkcs12_builder(ptr noundef nonnull @.str.94) #4
  call void @llvm.lifetime.start.p0(i64 8, ptr nonnull %1) #4
  tail call void @start_pkcs12(ptr noundef %2) #4
  tail call void @start_contentinfo(ptr noundef %2) #4
  tail call void @add_certbag(ptr noundef %2, ptr noundef nonnull @CERT1, i32 noundef 497, ptr noundef nonnull @ATTRS4) #4
  %3 = getelementptr inbounds nuw i8, ptr %2, i64 40
  %4 = load ptr, ptr %3, align 8, !tbaa !27
  %5 = tail call ptr @OPENSSL_sk_value(ptr noundef %4, i32 noundef 0) #4
  %6 = tail call ptr @PKCS12_SAFEBAG_get0_attrs(ptr noundef %5) #4
  store ptr %6, ptr %1, align 8, !tbaa !32
  %7 = tail call ptr @OBJ_txt2obj(ptr noundef nonnull @.str.93, i32 noundef 0) #4
  %8 = tail call ptr @X509_ATTRIBUTE_create(i32 noundef 1283, i32 noundef 6, ptr noundef %7) #4
  %9 = call ptr @X509at_add1_attr(ptr noundef nonnull %1, ptr noundef %8) #4
  %10 = load ptr, ptr %1, align 8, !tbaa !32
  call void @PKCS12_SAFEBAG_set0_attrs(ptr noundef %5, ptr noundef %10) #4
  %11 = call ptr @PKCS12_SAFEBAG_get0_attrs(ptr noundef %5) #4
  store ptr %11, ptr %1, align 8, !tbaa !32
  call void @X509_ATTRIBUTE_free(ptr noundef %8) #4
  %12 = load ptr, ptr %1, align 8, !tbaa !32
  %13 = call i32 @test_ptr(ptr noundef nonnull @.str.20, i32 noundef 773, ptr noundef nonnull @.str.95, ptr noundef %12) #4
  %.not = icmp eq i32 %13, 0
  br i1 %.not, label %16, label %14

14:                                               ; preds = %0
  call void @end_contentinfo(ptr noundef nonnull %2) #4
  call void @end_pkcs12(ptr noundef nonnull %2) #4
  call void @start_check_pkcs12(ptr noundef nonnull %2) #4
  call void @start_check_contentinfo(ptr noundef nonnull %2) #4
  call void @check_certbag(ptr noundef nonnull %2, ptr noundef nonnull @CERT1, i32 noundef 497, ptr noundef nonnull @ATTRS3) #4
  call void @end_check_contentinfo(ptr noundef nonnull %2) #4
  call void @end_check_pkcs12(ptr noundef nonnull %2) #4
  %15 = call i32 @end_pkcs12_builder(ptr noundef nonnull %2) #4
  br label %18

16:                                               ; preds = %0
  %17 = call i32 @end_pkcs12_builder(ptr noundef nonnull %2) #4
  br label %18

18:                                               ; preds = %16, %14
  %.0 = phi i32 [ %15, %14 ], [ 0, %16 ]
  call void @llvm.lifetime.end.p0(i64 8, ptr nonnull %1) #4
  ret i32 %.0
}